target datalayout = "e-m:e-p270:32:32-p271:32:32-p272:64:64-i64:64-i128:128-f80:128-n8:16:32:64-S128"
target triple = "x86_64-pc-linux-gnu"

%struct.PgStat_PendingIO = type { [3 x [5 x [8 x i64]]], [3 x [5 x [8 x i64]]], [3 x [5 x [8 x %struct.instr_time]]] }
%struct.instr_time = type { i64 }
%struct.BufferUsage = type { i64, i64, i64, i64, i64, i64, i64, i64, i64, i64, %struct.instr_time, %struct.instr_time, %struct.instr_time, %struct.instr_time, %struct.instr_time, %struct.instr_time }
%struct.timespec = type { i64, i64 }

@PendingIOStats = internal global %struct.PgStat_PendingIO zeroinitializer, align 8
@have_iostats = internal global i8 0, align 1
@track_io_timing = external global i8, align 1
@pgStatBlockWriteTime = external global i64, align 8
@pgBufferUsage = external global %struct.BufferUsage, align 8
@pgStatBlockReadTime = external global i64, align 8

; Function Attrs: nounwind uwtable
define dso_local void @pgstat_count_io_op(i32 noundef %0, i32 noundef %1, i32 noundef %2, i32 noundef %3, i64 noundef %4) #0 {
  %6 = alloca i32, align 4
  %7 = alloca i32, align 4
  %8 = alloca i32, align 4
  %9 = alloca i32, align 4
  %10 = alloca i64, align 8
  store i32 %0, ptr %6, align 4
  store i32 %1, ptr %7, align 4
  store i32 %2, ptr %8, align 4
  store i32 %3, ptr %9, align 4
  store i64 %4, ptr %10, align 8
  %11 = load i32, ptr %9, align 4
  %12 = zext i32 %11 to i64
  %13 = load i32, ptr %6, align 4
  %14 = zext i32 %13 to i64
  %15 = getelementptr inbounds nuw [3 x [5 x [8 x i64]]], ptr getelementptr inbounds nuw (%struct.PgStat_PendingIO, ptr @PendingIOStats, i32 0, i32 1), i64 0, i64 %14
  %16 = load i32, ptr %7, align 4
  %17 = zext i32 %16 to i64
  %18 = getelementptr inbounds nuw [5 x [8 x i64]], ptr %15, i64 0, i64 %17
  %19 = load i32, ptr %8, align 4
  %20 = zext i32 %19 to i64
  %21 = getelementptr inbounds nuw [8 x i64], ptr %18, i64 0, i64 %20
  %22 = load i64, ptr %21, align 8
  %23 = add i64 %22, %12
  store i64 %23, ptr %21, align 8
  %24 = load i64, ptr %10, align 8
  %25 = load i32, ptr %6, align 4
  %26 = zext i32 %25 to i64
  %27 = getelementptr inbounds nuw [3 x [5 x [8 x i64]]], ptr @PendingIOStats, i64 0, i64 %26
  %28 = load i32, ptr %7, align 4
  %29 = zext i32 %28 to i64
  %30 = getelementptr inbounds nuw [5 x [8 x i64]], ptr %27, i64 0, i64 %29
  %31 = load i32, ptr %8, align 4
  %32 = zext i32 %31 to i64
  %33 = getelementptr inbounds nuw [8 x i64], ptr %30, i64 0, i64 %32
  %34 = load i64, ptr %33, align 8
  %35 = add i64 %34, %24
  store i64 %35, ptr %33, align 8
  %36 = load i32, ptr %6, align 4
  %37 = load i32, ptr %7, align 4
  %38 = load i32, ptr %8, align 4
  %39 = load i32, ptr %9, align 4
  %40 = load i64, ptr %10, align 8
  call void @pgstat_count_backend_io_op(i32 noundef %36, i32 noundef %37, i32 noundef %38, i32 noundef %39, i64 noundef %40)
  store i8 1, ptr @have_iostats, align 1
  ret void
}

; Function Attrs: inlinehint nounwind uwtable
define internal i64 @pg_clock_gettime_ns() #3 {
  %1 = alloca %struct.instr_time, align 8
  %2 = alloca %struct.timespec, align 8
  call void @llvm.lifetime.start.p0(i64 16, ptr %2) #8
  %3 = call i32 @clock_gettime(i32 noundef 1, ptr noundef %2) #8
  %4 = getelementptr inbounds nuw %struct.timespec, ptr %2, i32 0, i32 0
  %5 = load i64, ptr %4, align 8
  %6 = mul i64 %5, 1000000000
  %7 = getelementptr inbounds nuw %struct.timespec, ptr %2, i32 0, i32 1
  %8 = load i64, ptr %7, align 8
  %9 = add i64 %6, %8
  %10 = getelementptr inbounds nuw %struct.instr_time, ptr %1, i32 0, i32 0
  store i64 %9, ptr %10, align 8
  call void @llvm.lifetime.end.p0(i64 16, ptr %2) #8
  %11 = getelementptr inbounds nuw %struct.instr_time, ptr %1, i32 0, i32 0
  %12 = load i64, ptr %11, align 8
  ret i64 %12
}

; Function Attrs: nounwind uwtable
define dso_local void @pgstat_count_io_op_time(i32 noundef %0, i32 noundef %1, i32 noundef %2, i64 %3, i32 noundef %4, i64 noundef %5) #0 {
  %7 = alloca %struct.instr_time, align 8
  %8 = alloca i32, align 4
  %9 = alloca i32, align 4
  %10 = alloca i32, align 4
  %11 = alloca i32, align 4
  %12 = alloca i64, align 8
  %13 = alloca %struct.instr_time, align 8
  %14 = alloca %struct.instr_time, align 8
  %15 = getelementptr inbounds nuw %struct.instr_time, ptr %7, i32 0, i32 0
  store i64 %3, ptr %15, align 8
  store i32 %0, ptr %8, align 4
  store i32 %1, ptr %9, align 4
  store i32 %2, ptr %10, align 4
  store i32 %4, ptr %11, align 4
  store i64 %5, ptr %12, align 8
  %16 = load i8, ptr @track_io_timing, align 1, !range !8, !noundef !9
  %17 = trunc i8 %16 to i1
  br i1 %17, label %18, label %105

18:                                               ; preds = %6
  call void @llvm.lifetime.start.p0(i64 8, ptr %13) #8
  call void @llvm.lifetime.start.p0(i64 8, ptr %14) #8
  %19 = call i64 @pg_clock_gettime_ns()
  %20 = getelementptr inbounds nuw %struct.instr_time, ptr %14, i32 0, i32 0
  store i64 %19, ptr %20, align 8
  call void @llvm.memcpy.p0.p0.i64(ptr align 8 %13, ptr align 8 %14, i64 8, i1 false)
  call void @llvm.lifetime.end.p0(i64 8, ptr %14) #8
  %21 = getelementptr inbounds nuw %struct.instr_time, ptr %7, i32 0, i32 0
  %22 = load i64, ptr %21, align 8
  %23 = getelementptr inbounds nuw %struct.instr_time, ptr %13, i32 0, i32 0
  %24 = load i64, ptr %23, align 8
  %25 = sub i64 %24, %22
  store i64 %25, ptr %23, align 8
  %26 = load i32, ptr %8, align 4
  %27 = icmp ne i32 %26, 2
  br i1 %27, label %28, label %85

28:                                               ; preds = %18
  %29 = load i32, ptr %10, align 4
  %30 = icmp eq i32 %29, 7
  br i1 %30, label %34, label %31

31:                                               ; preds = %28
  %32 = load i32, ptr %10, align 4
  %33 = icmp eq i32 %32, 5
  br i1 %33, label %34, label %57

34:                                               ; preds = %31, %28
  %35 = getelementptr inbounds nuw %struct.instr_time, ptr %13, i32 0, i32 0
  %36 = load i64, ptr %35, align 8
  %37 = sdiv i64 %36, 1000
  %38 = load i64, ptr @pgStatBlockWriteTime, align 8
  %39 = add i64 %38, %37
  store i64 %39, ptr @pgStatBlockWriteTime, align 8
  %40 = load i32, ptr %8, align 4
  %41 = icmp eq i32 %40, 0
  br i1 %41, label %42, label %47

42:                                               ; preds = %34
  %43 = getelementptr inbounds nuw %struct.instr_time, ptr %13, i32 0, i32 0
  %44 = load i64, ptr %43, align 8
  %45 = load i64, ptr getelementptr inbounds nuw (%struct.BufferUsage, ptr @pgBufferUsage, i32 0, i32 11), align 8
  %46 = add i64 %45, %44
  store i64 %46, ptr getelementptr inbounds nuw (%struct.BufferUsage, ptr @pgBufferUsage, i32 0, i32 11), align 8
  br label %56

47:                                               ; preds = %34
  %48 = load i32, ptr %8, align 4
  %49 = icmp eq i32 %48, 1
  br i1 %49, label %50, label %55

50:                                               ; preds = %47
  %51 = getelementptr inbounds nuw %struct.instr_time, ptr %13, i32 0, i32 0
  %52 = load i64, ptr %51, align 8
  %53 = load i64, ptr getelementptr inbounds nuw (%struct.BufferUsage, ptr @pgBufferUsage, i32 0, i32 13), align 8
  %54 = add i64 %53, %52
  store i64 %54, ptr getelementptr inbounds nuw (%struct.BufferUsage, ptr @pgBufferUsage, i32 0, i32 13), align 8
  br label %55

55:                                               ; preds = %50, %47
  br label %56

56:                                               ; preds = %55, %42
  br label %84

57:                                               ; preds = %31
  %58 = load i32, ptr %10, align 4
  %59 = icmp eq i32 %58, 6
  br i1 %59, label %60, label %83

60:                                               ; preds = %57
  %61 = getelementptr inbounds nuw %struct.instr_time, ptr %13, i32 0, i32 0
  %62 = load i64, ptr %61, align 8
  %63 = sdiv i64 %62, 1000
  %64 = load i64, ptr @pgStatBlockReadTime, align 8
  %65 = add i64 %64, %63
  store i64 %65, ptr @pgStatBlockReadTime, align 8
  %66 = load i32, ptr %8, align 4
  %67 = icmp eq i32 %66, 0
  br i1 %67, label %68, label %73

68:                                               ; preds = %60
  %69 = getelementptr inbounds nuw %struct.instr_time, ptr %13, i32 0, i32 0
  %70 = load i64, ptr %69, align 8
  %71 = load i64, ptr getelementptr inbounds nuw (%struct.BufferUsage, ptr @pgBufferUsage, i32 0, i32 10), align 8
  %72 = add i64 %71, %70
  store i64 %72, ptr getelementptr inbounds nuw (%struct.BufferUsage, ptr @pgBufferUsage, i32 0, i32 10), align 8
  br label %82

73:                                               ; preds = %60
  %74 = load i32, ptr %8, align 4
  %75 = icmp eq i32 %74, 1
  br i1 %75, label %76, label %81

76:                                               ; preds = %73
  %77 = getelementptr inbounds nuw %struct.instr_time, ptr %13, i32 0, i32 0
  %78 = load i64, ptr %77, align 8
  %79 = load i64, ptr getelementptr inbounds nuw (%struct.BufferUsage, ptr @pgBufferUsage, i32 0, i32 12), align 8
  %80 = add i64 %79, %78
  store i64 %80, ptr getelementptr inbounds nuw (%struct.BufferUsage, ptr @pgBufferUsage, i32 0, i32 12), align 8
  br label %81

81:                                               ; preds = %76, %73
  br label %82

82:                                               ; preds = %81, %68
  br label %83

83:                                               ; preds = %82, %57
  br label %84

84:                                               ; preds = %83, %56
  br label %85

85:                                               ; preds = %84, %18
  %86 = getelementptr inbounds nuw %struct.instr_time, ptr %13, i32 0, i32 0
  %87 = load i64, ptr %86, align 8
  %88 = load i32, ptr %8, align 4
  %89 = zext i32 %88 to i64
  %90 = getelementptr inbounds nuw [3 x [5 x [8 x %struct.instr_time]]], ptr getelementptr inbounds nuw (%struct.PgStat_PendingIO, ptr @PendingIOStats, i32 0, i32 2), i64 0, i64 %89
  %91 = load i32, ptr %9, align 4
  %92 = zext i32 %91 to i64
  %93 = getelementptr inbounds nuw [5 x [8 x %struct.instr_time]], ptr %90, i64 0, i64 %92
  %94 = load i32, ptr %10, align 4
  %95 = zext i32 %94 to i64
  %96 = getelementptr inbounds nuw [8 x %struct.instr_time], ptr %93, i64 0, i64 %95
  %97 = getelementptr inbounds nuw %struct.instr_time, ptr %96, i32 0, i32 0
  %98 = load i64, ptr %97, align 8
  %99 = add i64 %98, %87
  store i64 %99, ptr %97, align 8
  %100 = load i32, ptr %8, align 4
  %101 = load i32, ptr %9, align 4
  %102 = load i32, ptr %10, align 4
  %103 = getelementptr inbounds nuw %struct.instr_time, ptr %13, i32 0, i32 0
  %104 = load i64, ptr %103, align 8
  call void @pgstat_count_backend_io_op_time(i32 noundef %100, i32 noundef %101, i32 noundef %102, i64 %104)
  call void @llvm.lifetime.end.p0(i64 8, ptr %13) #8
  br label %105

105:                                              ; preds = %85, %6
  %106 = load i32, ptr %8, align 4
  %107 = load i32, ptr %9, align 4
  %108 = load i32, ptr %10, align 4
  %109 = load i32, ptr %11, align 4
  %110 = load i64, ptr %12, align 8
  call void @pgstat_count_io_op(i32 noundef %106, i32 noundef %107, i32 noundef %108, i32 noundef %109, i64 noundef %110)
  ret void
}