; Function Attrs: nounwind uwtable
define dso_local void @pgstat_count_io_op_time(i32 noundef %0, i32 noundef %1, i32 noundef %2, i64 %3, i32 noundef %4, i64 noundef %5) local_unnamed_addr #3 {
  %7 = alloca %struct.timespec, align 8
  %8 = load i8, ptr @track_io_timing, align 1, !range !8, !noundef !9
  %9 = trunc nuw i8 %8 to i1
  br i1 %9, label %10, label %._crit_edge

._crit_edge:                                      ; preds = %6
  %.pre = zext i32 %0 to i64
  %.pre31 = zext i32 %1 to i64
  %.pre33 = zext i32 %2 to i64
  br label %49

10:                                               ; preds = %6
  call void @llvm.lifetime.start.p0(i64 16, ptr nonnull %7) #11
  %11 = call i32 @clock_gettime(i32 noundef 1, ptr noundef nonnull %7) #11
  %12 = load i64, ptr %7, align 8
  %13 = mul i64 %12, 1000000000
  %14 = getelementptr inbounds nuw i8, ptr %7, i64 8
  %15 = load i64, ptr %14, align 8
  call void @llvm.lifetime.end.p0(i64 16, ptr nonnull %7) #11
  %16 = sub i64 %15, %3
  %17 = add i64 %16, %13
  %.not = icmp eq i32 %0, 2
  br i1 %.not, label %42, label %18

18:                                               ; preds = %10
  %19 = and i32 %2, -3
  %or.cond = icmp eq i32 %19, 5
  br i1 %or.cond, label %20, label %30

20:                                               ; preds = %18
  %21 = sdiv i64 %17, 1000
  %22 = load i64, ptr @pgStatBlockWriteTime, align 8
  %23 = add i64 %22, %21
  store i64 %23, ptr @pgStatBlockWriteTime, align 8
  switch i32 %0, label %42 [
    i32 0, label %24
    i32 1, label %27
  ]

24:                                               ; preds = %20
  %25 = load i64, ptr getelementptr inbounds nuw (i8, ptr @pgBufferUsage, i64 88), align 8
  %26 = add i64 %25, %17
  store i64 %26, ptr getelementptr inbounds nuw (i8, ptr @pgBufferUsage, i64 88), align 8
  br label %42

27:                                               ; preds = %20
  %28 = load i64, ptr getelementptr inbounds nuw (i8, ptr @pgBufferUsage, i64 104), align 8
  %29 = add i64 %28, %17
  store i64 %29, ptr getelementptr inbounds nuw (i8, ptr @pgBufferUsage, i64 104), align 8
  br label %42

30:                                               ; preds = %18
  %31 = icmp eq i32 %2, 6
  br i1 %31, label %32, label %42

32:                                               ; preds = %30
  %33 = sdiv i64 %17, 1000
  %34 = load i64, ptr @pgStatBlockReadTime, align 8
  %35 = add i64 %34, %33
  store i64 %35, ptr @pgStatBlockReadTime, align 8
  switch i32 %0, label %42 [
    i32 0, label %36
    i32 1, label %39
  ]

36:                                               ; preds = %32
  %37 = load i64, ptr getelementptr inbounds nuw (i8, ptr @pgBufferUsage, i64 80), align 8
  %38 = add i64 %37, %17
  store i64 %38, ptr getelementptr inbounds nuw (i8, ptr @pgBufferUsage, i64 80), align 8
  br label %42

39:                                               ; preds = %32
  %40 = load i64, ptr getelementptr inbounds nuw (i8, ptr @pgBufferUsage, i64 96), align 8
  %41 = add i64 %40, %17
  store i64 %41, ptr getelementptr inbounds nuw (i8, ptr @pgBufferUsage, i64 96), align 8
  br label %42

42:                                               ; preds = %32, %20, %27, %24, %36, %39, %30, %10
  %43 = zext i32 %0 to i64
  %44 = zext i32 %1 to i64
  %45 = zext i32 %2 to i64
  %46 = getelementptr inbounds nuw [3 x [5 x [8 x %struct.instr_time]]], ptr getelementptr inbounds nuw (i8, ptr @PendingIOStats, i64 1920), i64 0, i64 %43, i64 %44, i64 %45
  %47 = load i64, ptr %46, align 8
  %48 = add i64 %47, %17
  store i64 %48, ptr %46, align 8
  call void @pgstat_count_backend_io_op_time(i32 noundef %0, i32 noundef %1, i32 noundef %2, i64 %17) #11
  br label %49

49:                                               ; preds = %._crit_edge, %42
  %.pre-phi34 = phi i64 [ %.pre33, %._crit_edge ], [ %45, %42 ]
  %.pre-phi32 = phi i64 [ %.pre31, %._crit_edge ], [ %44, %42 ]
  %.pre-phi = phi i64 [ %.pre, %._crit_edge ], [ %43, %42 ]
  %50 = zext i32 %4 to i64
  %51 = getelementptr inbounds nuw [3 x [5 x [8 x i64]]], ptr getelementptr inbounds nuw (i8, ptr @PendingIOStats, i64 960), i64 0, i64 %.pre-phi, i64 %.pre-phi32, i64 %.pre-phi34
  %52 = load i64, ptr %51, align 8
  %53 = add i64 %52, %50
  store i64 %53, ptr %51, align 8
  %54 = getelementptr inbounds nuw [3 x [5 x [8 x i64]]], ptr @PendingIOStats, i64 0, i64 %.pre-phi, i64 %.pre-phi32, i64 %.pre-phi34
  %55 = load i64, ptr %54, align 8
  %56 = add i64 %55, %5
  store i64 %56, ptr %54, align 8
  call void @pgstat_count_backend_io_op(i32 noundef %0, i32 noundef %1, i32 noundef %2, i32 noundef %4, i64 noundef %5) #11
  store i1 true, ptr @have_iostats, align 1
  ret void
}